target datalayout = "e-m:e-p270:32:32-p271:32:32-p272:64:64-i64:64-i128:128-f80:128-n8:16:32:64-S128"
target triple = "x86_64-pc-linux-gnu"

%"struct.rocksdb::FileOpCounters" = type { %"struct.std::atomic", %"struct.std::atomic", %"struct.std::atomic", %"struct.std::atomic", %"struct.std::atomic", %"struct.std::atomic", %"struct.std::atomic", %"struct.std::atomic", %"struct.std::atomic", %"struct.std::atomic", %"struct.rocksdb::OpCounter", %"struct.rocksdb::OpCounter" }
%"struct.std::atomic" = type { %"struct.std::__atomic_base" }
%"struct.std::__atomic_base" = type { i32 }
%"struct.rocksdb::OpCounter" = type { %"struct.std::atomic", %"struct.std::atomic.0" }
%"struct.std::atomic.0" = type { %"struct.std::__atomic_base.1" }
%"struct.std::__atomic_base.1" = type { i64 }
%"class.rocksdb::CountedFileSystem" = type { %"class.rocksdb::FileSystemWrapper", %"struct.rocksdb::FileOpCounters" }
%"class.rocksdb::FileSystemWrapper" = type { %"class.rocksdb::FileSystem", %"class.std::shared_ptr" }
%"class.rocksdb::FileSystem" = type { %"class.rocksdb::Customizable" }
%"class.rocksdb::Customizable" = type { %"class.rocksdb::Configurable" }
%"class.rocksdb::Configurable" = type { ptr, %"class.std::vector" }
%"class.std::vector" = type { %"struct.std::_Vector_base" }
%"struct.std::_Vector_base" = type { %"struct.std::_Vector_base<rocksdb::Configurable::RegisteredOptions, std::allocator<rocksdb::Configurable::RegisteredOptions>>::_Vector_impl" }
%"struct.std::_Vector_base<rocksdb::Configurable::RegisteredOptions, std::allocator<rocksdb::Configurable::RegisteredOptions>>::_Vector_impl" = type { %"struct.std::_Vector_base<rocksdb::Configurable::RegisteredOptions, std::allocator<rocksdb::Configurable::RegisteredOptions>>::_Vector_impl_data" }
%"struct.std::_Vector_base<rocksdb::Configurable::RegisteredOptions, std::allocator<rocksdb::Configurable::RegisteredOptions>>::_Vector_impl_data" = type { ptr, ptr, ptr }
%"class.std::shared_ptr" = type { %"class.std::__shared_ptr" }
%"class.std::__shared_ptr" = type { ptr, %"class.std::__shared_count" }
%"class.std::__shared_count" = type { ptr }
%"class.rocksdb::IOStatus" = type { %"class.rocksdb::Status" }
%"class.rocksdb::Status" = type { i8, i8, i8, i8, i8, i8, %"class.std::unique_ptr" }
%"class.std::unique_ptr" = type { %"struct.std::__uniq_ptr_data" }
%"struct.std::__uniq_ptr_data" = type { %"class.std::__uniq_ptr_impl" }
%"class.std::__uniq_ptr_impl" = type { %"class.std::tuple" }
%"class.std::tuple" = type { %"struct.std::_Tuple_impl" }
%"struct.std::_Tuple_impl" = type { %"struct.std::_Head_base.6" }
%"struct.std::_Head_base.6" = type { ptr }
%"class.std::unique_ptr.44" = type { %"struct.std::__uniq_ptr_data.45" }
%"struct.std::__uniq_ptr_data.45" = type { %"class.std::__uniq_ptr_impl.46" }
%"class.std::__uniq_ptr_impl.46" = type { %"class.std::tuple.47" }
%"class.std::tuple.47" = type { %"struct.std::_Tuple_impl.48" }
%"struct.std::_Tuple_impl.48" = type { %"struct.std::_Head_base.51" }
%"struct.std::_Head_base.51" = type { ptr }
%"class.rocksdb::(anonymous namespace)::CountedDirectory" = type <{ %"class.rocksdb::FSDirectoryWrapper", ptr, i8, [7 x i8] }>
%"class.rocksdb::FSDirectoryWrapper" = type { %"class.rocksdb::FSDirectory", %"class.std::unique_ptr.44", ptr }
%"class.rocksdb::FSDirectory" = type { ptr }

; Function Attrs: mustprogress nounwind uwtable
define linkonce_odr noundef nonnull align 1 dereferenceable(1) ptr @_ZNSt10_Head_baseILm1ESt14default_deleteIA_KcELb1EE7_M_headERS4_(ptr noundef nonnull align 1 dereferenceable(1) %0) #5 comdat align 2 {
  %2 = alloca ptr, align 8
  store ptr %0, ptr %2, align 8, !tbaa !264
  %3 = load ptr, ptr %2, align 8, !tbaa !264
  ret ptr %3
}

; Function Attrs: mustprogress nounwind uwtable
define linkonce_odr noundef nonnull align 1 dereferenceable(1) ptr @_ZNSt11_Tuple_implILm1EJSt14default_deleteIA_KcEEE7_M_headERS4_(ptr noundef nonnull align 1 dereferenceable(1) %0) #5 comdat align 2 {
  %2 = alloca ptr, align 8
  store ptr %0, ptr %2, align 8, !tbaa !259
  %3 = load ptr, ptr %2, align 8, !tbaa !259
  %4 = call noundef nonnull align 1 dereferenceable(1) ptr @_ZNSt10_Head_baseILm1ESt14default_deleteIA_KcELb1EE7_M_headERS4_(ptr noundef nonnull align 1 dereferenceable(1) %3) #19
  ret ptr %4
}

; Function Attrs: mustprogress nounwind uwtable
define linkonce_odr noundef nonnull align 8 dereferenceable(8) ptr @_ZNSt10_Head_baseILm0EPKcLb0EE7_M_headERS2_(ptr noundef nonnull align 8 dereferenceable(8) %0) #5 comdat align 2 {
  %2 = alloca ptr, align 8
  store ptr %0, ptr %2, align 8, !tbaa !261
  %3 = load ptr, ptr %2, align 8, !tbaa !261
  %4 = getelementptr inbounds nuw %"struct.std::_Head_base.6", ptr %3, i32 0, i32 0
  ret ptr %4
}

; Function Attrs: mustprogress nounwind uwtable
define linkonce_odr noundef nonnull align 1 dereferenceable(1) ptr @_ZSt12__get_helperILm1ESt14default_deleteIA_KcEJEERT0_RSt11_Tuple_implIXT_EJS4_DpT1_EE(ptr noundef nonnull align 1 dereferenceable(1) %0) #5 comdat {
  %2 = alloca ptr, align 8
  store ptr %0, ptr %2, align 8, !tbaa !259
  %3 = load ptr, ptr %2, align 8, !tbaa !259
  %4 = call noundef nonnull align 1 dereferenceable(1) ptr @_ZNSt11_Tuple_implILm1EJSt14default_deleteIA_KcEEE7_M_headERS4_(ptr noundef nonnull align 1 dereferenceable(1) %3) #19
  ret ptr %4
}

; Function Attrs: mustprogress nounwind uwtable
define linkonce_odr noundef nonnull align 8 dereferenceable(8) ptr @_ZNSt11_Tuple_implILm0EJPKcSt14default_deleteIA_S0_EEE7_M_headERS5_(ptr noundef nonnull align 8 dereferenceable(8) %0) #5 comdat align 2 {
  %2 = alloca ptr, align 8
  store ptr %0, ptr %2, align 8, !tbaa !257
  %3 = load ptr, ptr %2, align 8, !tbaa !257
  %4 = call noundef nonnull align 8 dereferenceable(8) ptr @_ZNSt10_Head_baseILm0EPKcLb0EE7_M_headERS2_(ptr noundef nonnull align 8 dereferenceable(8) %3) #19
  ret ptr %4
}

; Function Attrs: mustprogress nounwind uwtable
define linkonce_odr noundef nonnull align 1 dereferenceable(1) ptr @_ZSt3getILm1EJPKcSt14default_deleteIA_S0_EEERNSt13tuple_elementIXT_ESt5tupleIJDpT0_EEE4typeERS9_(ptr noundef nonnull align 8 dereferenceable(8) %0) #5 comdat {
  %2 = alloca ptr, align 8
  store ptr %0, ptr %2, align 8, !tbaa !255
  %3 = load ptr, ptr %2, align 8, !tbaa !255
  %4 = call noundef nonnull align 1 dereferenceable(1) ptr @_ZSt12__get_helperILm1ESt14default_deleteIA_KcEJEERT0_RSt11_Tuple_implIXT_EJS4_DpT1_EE(ptr noundef nonnull align 1 dereferenceable(1) %3) #19
  ret ptr %4
}

; Function Attrs: mustprogress nounwind uwtable
define linkonce_odr noundef nonnull align 8 dereferenceable(8) ptr @_ZSt12__get_helperILm0EPKcJSt14default_deleteIA_S0_EEERT0_RSt11_Tuple_implIXT_EJS5_DpT1_EE(ptr noundef nonnull align 8 dereferenceable(8) %0) #5 comdat {
  %2 = alloca ptr, align 8
  store ptr %0, ptr %2, align 8, !tbaa !257
  %3 = load ptr, ptr %2, align 8, !tbaa !257
  %4 = call noundef nonnull align 8 dereferenceable(8) ptr @_ZNSt11_Tuple_implILm0EJPKcSt14default_deleteIA_S0_EEE7_M_headERS5_(ptr noundef nonnull align 8 dereferenceable(8) %3) #19
  ret ptr %4
}

; Function Attrs: mustprogress nounwind uwtable
define linkonce_odr noundef nonnull align 1 dereferenceable(1) ptr @_ZNSt15__uniq_ptr_implIKcSt14default_deleteIA_S0_EE10_M_deleterEv(ptr noundef nonnull align 8 dereferenceable(8) %0) #5 comdat align 2 {
  %2 = alloca ptr, align 8
  store ptr %0, ptr %2, align 8, !tbaa !253
  %3 = load ptr, ptr %2, align 8
  %4 = getelementptr inbounds nuw %"class.std::__uniq_ptr_impl", ptr %3, i32 0, i32 0
  %5 = call noundef nonnull align 1 dereferenceable(1) ptr @_ZSt3getILm1EJPKcSt14default_deleteIA_S0_EEERNSt13tuple_elementIXT_ESt5tupleIJDpT0_EEE4typeERS9_(ptr noundef nonnull align 8 dereferenceable(8) %4) #19
  ret ptr %5
}

; Function Attrs: mustprogress nounwind uwtable
define linkonce_odr noundef nonnull align 8 dereferenceable(8) ptr @_ZSt3getILm0EJPKcSt14default_deleteIA_S0_EEERNSt13tuple_elementIXT_ESt5tupleIJDpT0_EEE4typeERS9_(ptr noundef nonnull align 8 dereferenceable(8) %0) #5 comdat {
  %2 = alloca ptr, align 8
  store ptr %0, ptr %2, align 8, !tbaa !255
  %3 = load ptr, ptr %2, align 8, !tbaa !255
  %4 = call noundef nonnull align 8 dereferenceable(8) ptr @_ZSt12__get_helperILm0EPKcJSt14default_deleteIA_S0_EEERT0_RSt11_Tuple_implIXT_EJS5_DpT1_EE(ptr noundef nonnull align 8 dereferenceable(8) %3) #19
  ret ptr %4
}

; Function Attrs: mustprogress nounwind uwtable
define linkonce_odr void @_ZNKSt14default_deleteIA_KcEclIS0_EENSt9enable_ifIXsr14is_convertibleIPA_T_PS1_EE5valueEvE4typeEPS5_(ptr noundef nonnull align 1 dereferenceable(1) %0, ptr noundef %1) #5 comdat align 2 {
  %3 = alloca ptr, align 8
  %4 = alloca ptr, align 8
  store ptr %0, ptr %3, align 8, !tbaa !266
  store ptr %1, ptr %4, align 8, !tbaa !15
  %5 = load ptr, ptr %4, align 8, !tbaa !15
  %6 = icmp eq ptr %5, null
  br i1 %6, label %8, label %7

7:                                                ; preds = %2
  call void @_ZdaPv(ptr noundef %5) #22
  br label %8

8:                                                ; preds = %7, %2
  ret void
}

; Function Attrs: mustprogress nounwind uwtable
define linkonce_odr noundef nonnull align 1 dereferenceable(1) ptr @_ZNSt10unique_ptrIA_KcSt14default_deleteIS1_EE11get_deleterEv(ptr noundef nonnull align 8 dereferenceable(8) %0) #5 comdat align 2 {
  %2 = alloca ptr, align 8
  store ptr %0, ptr %2, align 8, !tbaa !249
  %3 = load ptr, ptr %2, align 8
  %4 = getelementptr inbounds nuw %"class.std::unique_ptr", ptr %3, i32 0, i32 0
  %5 = call noundef nonnull align 1 dereferenceable(1) ptr @_ZNSt15__uniq_ptr_implIKcSt14default_deleteIA_S0_EE10_M_deleterEv(ptr noundef nonnull align 8 dereferenceable(8) %4) #19
  ret ptr %5
}

; Function Attrs: mustprogress nounwind uwtable
define linkonce_odr noundef nonnull align 8 dereferenceable(8) ptr @_ZNSt15__uniq_ptr_implIKcSt14default_deleteIA_S0_EE6_M_ptrEv(ptr noundef nonnull align 8 dereferenceable(8) %0) #5 comdat align 2 {
  %2 = alloca ptr, align 8
  store ptr %0, ptr %2, align 8, !tbaa !253
  %3 = load ptr, ptr %2, align 8
  %4 = getelementptr inbounds nuw %"class.std::__uniq_ptr_impl", ptr %3, i32 0, i32 0
  %5 = call noundef nonnull align 8 dereferenceable(8) ptr @_ZSt3getILm0EJPKcSt14default_deleteIA_S0_EEERNSt13tuple_elementIXT_ESt5tupleIJDpT0_EEE4typeERS9_(ptr noundef nonnull align 8 dereferenceable(8) %4) #19
  ret ptr %5
}

; Function Attrs: mustprogress nounwind uwtable
define linkonce_odr void @_ZNSt10unique_ptrIA_KcSt14default_deleteIS1_EED2Ev(ptr noundef nonnull align 8 dereferenceable(8) %0) unnamed_addr #5 comdat align 2 {
  %2 = alloca ptr, align 8
  %3 = alloca ptr, align 8
  store ptr %0, ptr %2, align 8, !tbaa !249
  %4 = load ptr, ptr %2, align 8
  call void @llvm.lifetime.start.p0(i64 8, ptr %3) #19
  %5 = getelementptr inbounds nuw %"class.std::unique_ptr", ptr %4, i32 0, i32 0
  %6 = call noundef nonnull align 8 dereferenceable(8) ptr @_ZNSt15__uniq_ptr_implIKcSt14default_deleteIA_S0_EE6_M_ptrEv(ptr noundef nonnull align 8 dereferenceable(8) %5) #19
  store ptr %6, ptr %3, align 8, !tbaa !268
  %7 = load ptr, ptr %3, align 8, !tbaa !268
  %8 = load ptr, ptr %7, align 8, !tbaa !15
  %9 = icmp ne ptr %8, null
  br i1 %9, label %10, label %14

10:                                               ; preds = %1
  %11 = call noundef nonnull align 1 dereferenceable(1) ptr @_ZNSt10unique_ptrIA_KcSt14default_deleteIS1_EE11get_deleterEv(ptr noundef nonnull align 8 dereferenceable(8) %4) #19
  %12 = load ptr, ptr %3, align 8, !tbaa !268
  %13 = load ptr, ptr %12, align 8, !tbaa !15
  call void @_ZNKSt14default_deleteIA_KcEclIS0_EENSt9enable_ifIXsr14is_convertibleIPA_T_PS1_EE5valueEvE4typeEPS5_(ptr noundef nonnull align 1 dereferenceable(1) %11, ptr noundef %13)
  br label %14

14:                                               ; preds = %10, %1
  %15 = load ptr, ptr %3, align 8, !tbaa !268
  store ptr null, ptr %15, align 8, !tbaa !15
  call void @llvm.lifetime.end.p0(i64 8, ptr %3) #19
  ret void
}

; Function Attrs: alwaysinline mustprogress nounwind uwtable
define linkonce_odr noundef i32 @_ZNSt13__atomic_baseIiE9fetch_addEiSt12memory_order(ptr noundef nonnull align 4 dereferenceable(4) %0, i32 noundef %1, i32 noundef %2) #4 comdat align 2 {
  %4 = alloca ptr, align 8
  %5 = alloca i32, align 4
  %6 = alloca i32, align 4
  %7 = alloca i32, align 4
  %8 = alloca i32, align 4
  store ptr %0, ptr %4, align 8, !tbaa !17
  store i32 %1, ptr %5, align 4, !tbaa !21
  store i32 %2, ptr %6, align 4, !tbaa !19
  %9 = load ptr, ptr %4, align 8
  %10 = getelementptr inbounds nuw %"struct.std::__atomic_base", ptr %9, i32 0, i32 0
  %11 = load i32, ptr %6, align 4, !tbaa !19
  %12 = load i32, ptr %5, align 4, !tbaa !21
  store i32 %12, ptr %7, align 4, !tbaa !21
  switch i32 %11, label %13 [
    i32 1, label %16
    i32 2, label %16
    i32 3, label %19
    i32 4, label %22
    i32 5, label %25
  ]

13:                                               ; preds = %3
  %14 = load i32, ptr %7, align 4
  %15 = atomicrmw add ptr %10, i32 %14 monotonic, align 4
  store i32 %15, ptr %8, align 4
  br label %28

16:                                               ; preds = %3, %3
  %17 = load i32, ptr %7, align 4
  %18 = atomicrmw add ptr %10, i32 %17 acquire, align 4
  store i32 %18, ptr %8, align 4
  br label %28

19:                                               ; preds = %3
  %20 = load i32, ptr %7, align 4
  %21 = atomicrmw add ptr %10, i32 %20 release, align 4
  store i32 %21, ptr %8, align 4
  br label %28

22:                                               ; preds = %3
  %23 = load i32, ptr %7, align 4
  %24 = atomicrmw add ptr %10, i32 %23 acq_rel, align 4
  store i32 %24, ptr %8, align 4
  br label %28

25:                                               ; preds = %3
  %26 = load i32, ptr %7, align 4
  %27 = atomicrmw add ptr %10, i32 %26 seq_cst, align 4
  store i32 %27, ptr %8, align 4
  br label %28

28:                                               ; preds = %25, %22, %19, %16, %13
  %29 = load i32, ptr %8, align 4, !tbaa !21
  ret i32 %29
}

; Function Attrs: mustprogress nounwind uwtable
define linkonce_odr noundef zeroext i8 @_ZNK7rocksdb6Status4codeEv(ptr noundef nonnull align 8 dereferenceable(16) %0) #5 comdat align 2 {
  %2 = alloca ptr, align 8
  store ptr %0, ptr %2, align 8, !tbaa !42
  %3 = load ptr, ptr %2, align 8
  call void @_ZNK7rocksdb6Status11MarkCheckedEv(ptr noundef nonnull align 8 dereferenceable(16) %3)
  %4 = getelementptr inbounds nuw %"class.rocksdb::Status", ptr %3, i32 0, i32 0
  %5 = load i8, ptr %4, align 8, !tbaa !217
  ret i8 %5
}

; Function Attrs: inlinehint mustprogress nounwind uwtable
define linkonce_odr void @_ZNK7rocksdb6Status11MarkCheckedEv(ptr noundef nonnull align 8 dereferenceable(16) %0) #8 comdat align 2 {
  %2 = alloca ptr, align 8
  store ptr %0, ptr %2, align 8, !tbaa !42
  ret void
}

; Function Attrs: mustprogress nounwind uwtable
define linkonce_odr void @_ZN7rocksdb6StatusD2Ev(ptr noundef nonnull align 8 dereferenceable(16) %0) unnamed_addr #5 comdat align 2 {
  %2 = alloca ptr, align 8
  store ptr %0, ptr %2, align 8, !tbaa !42
  %3 = load ptr, ptr %2, align 8
  %4 = getelementptr inbounds nuw %"class.rocksdb::Status", ptr %3, i32 0, i32 6
  call void @_ZNSt10unique_ptrIA_KcSt14default_deleteIS1_EED2Ev(ptr noundef nonnull align 8 dereferenceable(8) %4) #19
  ret void
}

; Function Attrs: mustprogress nounwind uwtable
define linkonce_odr noundef i32 @_ZNSt13__atomic_baseIiEppEi(ptr noundef nonnull align 4 dereferenceable(4) %0, i32 noundef %1) #5 comdat align 2 {
  %3 = alloca ptr, align 8
  %4 = alloca i32, align 4
  store ptr %0, ptr %3, align 8, !tbaa !17
  store i32 %1, ptr %4, align 4, !tbaa !21
  %5 = load ptr, ptr %3, align 8
  %6 = call noundef i32 @_ZNSt13__atomic_baseIiE9fetch_addEiSt12memory_order(ptr noundef nonnull align 4 dereferenceable(4) %5, i32 noundef 1, i32 noundef 5) #19
  ret i32 %6
}

; Function Attrs: mustprogress nounwind uwtable
define linkonce_odr noundef ptr @_ZN7rocksdb17CountedFileSystem8countersEv(ptr noundef nonnull align 8 dereferenceable(120) %0) #5 comdat align 2 {
  %2 = alloca ptr, align 8
  store ptr %0, ptr %2, align 8, !tbaa !28
  %3 = load ptr, ptr %2, align 8
  %4 = getelementptr inbounds nuw %"class.rocksdb::CountedFileSystem", ptr %3, i32 0, i32 1
  ret ptr %4
}

; Function Attrs: mustprogress uwtable
define linkonce_odr noundef zeroext i1 @_ZNK7rocksdb6Status2okEv(ptr noundef nonnull align 8 dereferenceable(16) %0) #0 comdat align 2 {
  %2 = alloca ptr, align 8
  store ptr %0, ptr %2, align 8, !tbaa !42
  %3 = load ptr, ptr %2, align 8
  call void @_ZNK7rocksdb6Status11MarkCheckedEv(ptr noundef nonnull align 8 dereferenceable(16) %3)
  %4 = call noundef zeroext i8 @_ZNK7rocksdb6Status4codeEv(ptr noundef nonnull align 8 dereferenceable(16) %3)
  %5 = zext i8 %4 to i32
  %6 = icmp eq i32 %5, 0
  ret i1 %6
}

; Function Attrs: mustprogress uwtable
define linkonce_odr void @_ZN7rocksdb18FSDirectoryWrapper5CloseERKNS_9IOOptionsEPNS_14IODebugContextE(ptr dead_on_unwind noalias writable sret(%"class.rocksdb::IOStatus") align 8 %0, ptr noundef nonnull align 8 dereferenceable(24) %1, ptr noundef nonnull align 8 dereferenceable(84) %2, ptr noundef %3) unnamed_addr #0 comdat align 2 {
  %5 = alloca ptr, align 8
  %6 = alloca ptr, align 8
  %7 = alloca ptr, align 8
  %8 = alloca ptr, align 8
  store ptr %0, ptr %5, align 8
  store ptr %1, ptr %6, align 8, !tbaa !390
  store ptr %2, ptr %7, align 8, !tbaa !122
  store ptr %3, ptr %8, align 8, !tbaa !38
  %9 = load ptr, ptr %6, align 8
  %10 = getelementptr inbounds nuw %"class.rocksdb::FSDirectoryWrapper", ptr %9, i32 0, i32 2
  %11 = load ptr, ptr %10, align 8, !tbaa !392
  %12 = load ptr, ptr %7, align 8, !tbaa !122
  %13 = load ptr, ptr %8, align 8, !tbaa !38
  %14 = load ptr, ptr %11, align 8, !tbaa !11
  %15 = getelementptr inbounds ptr, ptr %14, i64 4
  %16 = load ptr, ptr %15, align 8
  call void %16(ptr dead_on_unwind writable sret(%"class.rocksdb::IOStatus") align 8 %0, ptr noundef nonnull align 8 dereferenceable(8) %11, ptr noundef nonnull align 8 dereferenceable(84) %12, ptr noundef %13)
  ret void
}

; Function Attrs: mustprogress uwtable
define internal void @_ZN7rocksdb12_GLOBAL__N_116CountedDirectory5CloseERKNS_9IOOptionsEPNS_14IODebugContextE(ptr dead_on_unwind noalias writable sret(%"class.rocksdb::IOStatus") align 8 %0, ptr noundef nonnull align 8 dereferenceable(33) %1, ptr noundef nonnull align 8 dereferenceable(84) %2, ptr noundef %3) unnamed_addr #0 align 2 personality ptr @__gxx_personality_v0 {
  %5 = alloca ptr, align 8
  %6 = alloca ptr, align 8
  %7 = alloca ptr, align 8
  %8 = alloca ptr, align 8
  %9 = alloca i1, align 1
  %10 = alloca ptr, align 8
  %11 = alloca i32, align 4
  store ptr %0, ptr %5, align 8
  store ptr %1, ptr %6, align 8, !tbaa !128
  store ptr %2, ptr %7, align 8, !tbaa !122
  store ptr %3, ptr %8, align 8, !tbaa !38
  %12 = load ptr, ptr %6, align 8
  store i1 false, ptr %9, align 1
  %13 = load ptr, ptr %7, align 8, !tbaa !122
  %14 = load ptr, ptr %8, align 8, !tbaa !38
  call void @_ZN7rocksdb18FSDirectoryWrapper5CloseERKNS_9IOOptionsEPNS_14IODebugContextE(ptr dead_on_unwind writable sret(%"class.rocksdb::IOStatus") align 8 %0, ptr noundef nonnull align 8 dereferenceable(24) %12, ptr noundef nonnull align 8 dereferenceable(84) %13, ptr noundef %14)
  %15 = invoke noundef zeroext i1 @_ZNK7rocksdb6Status2okEv(ptr noundef nonnull align 8 dereferenceable(16) %0)
          to label %16 unwind label %29

16:                                               ; preds = %4
  br i1 %15, label %17, label %33

17:                                               ; preds = %16
  %18 = getelementptr inbounds nuw %"class.rocksdb::(anonymous namespace)::CountedDirectory", ptr %12, i32 0, i32 1
  %19 = load ptr, ptr %18, align 8, !tbaa !130
  %20 = call noundef ptr @_ZN7rocksdb17CountedFileSystem8countersEv(ptr noundef nonnull align 8 dereferenceable(120) %19)
  %21 = getelementptr inbounds nuw %"struct.rocksdb::FileOpCounters", ptr %20, i32 0, i32 1
  %22 = call noundef i32 @_ZNSt13__atomic_baseIiEppEi(ptr noundef nonnull align 4 dereferenceable(4) %21, i32 noundef 0) #19
  %23 = getelementptr inbounds nuw %"class.rocksdb::(anonymous namespace)::CountedDirectory", ptr %12, i32 0, i32 1
  %24 = load ptr, ptr %23, align 8, !tbaa !130
  %25 = call noundef ptr @_ZN7rocksdb17CountedFileSystem8countersEv(ptr noundef nonnull align 8 dereferenceable(120) %24)
  %26 = getelementptr inbounds nuw %"struct.rocksdb::FileOpCounters", ptr %25, i32 0, i32 9
  %27 = call noundef i32 @_ZNSt13__atomic_baseIiEppEi(ptr noundef nonnull align 4 dereferenceable(4) %26, i32 noundef 0) #19
  %28 = getelementptr inbounds nuw %"class.rocksdb::(anonymous namespace)::CountedDirectory", ptr %12, i32 0, i32 2
  store i8 1, ptr %28, align 8, !tbaa !140
  br label %33

29:                                               ; preds = %4
  %30 = landingpad { ptr, i32 }
          cleanup
  %31 = extractvalue { ptr, i32 } %30, 0
  store ptr %31, ptr %10, align 8
  %32 = extractvalue { ptr, i32 } %30, 1
  store i32 %32, ptr %11, align 4
  call void @_ZN7rocksdb6StatusD2Ev(ptr noundef nonnull align 8 dereferenceable(16) %0) #19
  br label %37

33:                                               ; preds = %17, %16
  store i1 true, ptr %9, align 1
  %34 = load i1, ptr %9, align 1
  br i1 %34, label %36, label %35

35:                                               ; preds = %33
  call void @_ZN7rocksdb6StatusD2Ev(ptr noundef nonnull align 8 dereferenceable(16) %0) #19
  br label %36

36:                                               ; preds = %35, %33
  ret void

37:                                               ; preds = %29
  %38 = load ptr, ptr %10, align 8
  %39 = load i32, ptr %11, align 4
  %40 = insertvalue { ptr, i32 } poison, ptr %38, 0
  %41 = insertvalue { ptr, i32 } %40, i32 %39, 1
  resume { ptr, i32 } %41
}