; Function Attrs: mustprogress uwtable
define internal void @_ZN7rocksdb12_GLOBAL__N_116CountedDirectory5CloseERKNS_9IOOptionsEPNS_14IODebugContextE(ptr dead_on_unwind noalias writable sret(%"class.rocksdb::IOStatus") align 8 %0, ptr noundef nonnull align 8 captures(none) dereferenceable(33) %1, ptr noundef nonnull align 8 dereferenceable(84) %2, ptr noundef %3) unnamed_addr #0 align 2 personality ptr @__gxx_personality_v0 {
  %5 = getelementptr inbounds nuw i8, ptr %1, i64 16
  %6 = load ptr, ptr %5, align 8, !tbaa !143, !noalias !184
  %7 = load ptr, ptr %6, align 8, !tbaa !4, !noalias !184
  %8 = getelementptr inbounds nuw i8, ptr %7, i64 32
  %9 = load ptr, ptr %8, align 8, !noalias !184
  tail call void %9(ptr dead_on_unwind writable sret(%"class.rocksdb::IOStatus") align 8 %0, ptr noundef nonnull align 8 dereferenceable(8) %6, ptr noundef nonnull align 8 dereferenceable(84) %2, ptr noundef %3)
  %10 = load i8, ptr %0, align 8, !tbaa !64
  %11 = icmp eq i8 %10, 0
  br i1 %11, label %12, label %21

12:                                               ; preds = %4
  %13 = getelementptr inbounds nuw i8, ptr %1, i64 24
  %14 = load ptr, ptr %13, align 8, !tbaa !151
  %15 = getelementptr inbounds nuw i8, ptr %14, i64 52
  %16 = atomicrmw add ptr %15, i32 1 seq_cst, align 4
  %17 = load ptr, ptr %13, align 8, !tbaa !151
  %18 = getelementptr inbounds nuw i8, ptr %17, i64 84
  %19 = atomicrmw add ptr %18, i32 1 seq_cst, align 4
  %20 = getelementptr inbounds nuw i8, ptr %1, i64 32
  store i8 1, ptr %20, align 8, !tbaa !153
  br label %21

21:                                               ; preds = %4, %12
  ret void
}